; Function Attrs: mustprogress uwtable
define noundef i64 @_ZN8proxygen26PassThroughHTTPCodecFilter19generateSettingsAckERN5folly10IOBufQueueE(ptr nocapture noundef nonnull readonly align 8 dereferenceable(72) %this, ptr noundef nonnull align 8 dereferenceable(72) %buf) unnamed_addr #3 align 2 {
entry:
  %call_ = getelementptr inbounds i8, ptr %this, i64 24
  %0 = load ptr, ptr %call_, align 8
  %vtable = load ptr, ptr %0, align 8
  %vfn = getelementptr inbounds i8, ptr %vtable, i64 304
  %1 = load ptr, ptr %vfn, align 8
  %call = tail call noundef i64 %1(ptr noundef nonnull align 8 dereferenceable(8) %0, ptr noundef nonnull align 8 dereferenceable(72) %buf)
  ret i64 %call
}